(lp0
F0.9950396734519582
aF0.0
acnumpy.core.multiarray
scalar
p1
(cnumpy
dtype
p2
(S'f8'
p3
I0
I1
tp4
Rp5
(I3
S'<'
p6
NNNI-1
I-1
I0
tp7
bS'X\x88n\xfe\x1d\x1d\xf0?'
p8
tp9
Rp10
aI400
aF1.0163522012578616
aF1.0
a.